; Function Attrs: mustprogress nounwind uwtable
define dso_local noundef i64 @_ZNK5clang13SelectorTable14getTotalMemoryEv(ptr nocapture noundef nonnull readonly align 8 dereferenceable(8) %0) local_unnamed_addr #3 align 2 {
  %2 = load ptr, ptr %0, align 8
  %3 = getelementptr inbounds i8, ptr %2, i64 32
  %4 = load ptr, ptr %3, align 8
  %5 = tail call noundef i64 @_ZNK4llvm15SmallVectorBaseIjE4sizeEv(ptr noundef nonnull align 8 dereferenceable(16) %3) #26
  %6 = getelementptr inbounds ptr, ptr %4, i64 %5
  %.not17.i = icmp eq i64 %5, 0
  br i1 %.not17.i, label %._crit_edge.i, label %.lr.ph.i

.lr.ph.i:                                         ; preds = %1
  %7 = load ptr, ptr %3, align 8
  %8 = ptrtoint ptr %7 to i64
  br label %9

9:                                                ; preds = %9, %.lr.ph.i
  %.019.i = phi i64 [ 0, %.lr.ph.i ], [ %16, %9 ]
  %.01418.i = phi ptr [ %4, %.lr.ph.i ], [ %17, %9 ]
  %10 = ptrtoint ptr %.01418.i to i64
  %11 = sub i64 %10, %8
  %sum.shift.i = lshr i64 %11, 10
  %12 = trunc i64 %sum.shift.i to i32
  %13 = and i32 %12, 33554431
  %14 = tail call i32 @llvm.umin.i32(i32 %13, i32 30)
  %.sroa.speculated.i.i = zext nneg i32 %14 to i64
  %15 = shl nuw nsw i64 4096, %.sroa.speculated.i.i
  %16 = add i64 %15, %.019.i
  %17 = getelementptr inbounds i8, ptr %.01418.i, i64 8
  %.not.i = icmp eq ptr %17, %6
  br i1 %.not.i, label %._crit_edge.i, label %9, !llvm.loop !13

._crit_edge.i:                                    ; preds = %9, %1
  %.0.lcssa.i = phi i64 [ 0, %1 ], [ %16, %9 ]
  %18 = getelementptr inbounds i8, ptr %2, i64 80
  %19 = load ptr, ptr %18, align 8
  %20 = tail call noundef i64 @_ZNK4llvm15SmallVectorBaseIjE4sizeEv(ptr noundef nonnull align 8 dereferenceable(16) %18) #26
  %21 = getelementptr inbounds %"struct.std::pair.55", ptr %19, i64 %20
  %.not1620.i = icmp eq i64 %20, 0
  br i1 %.not1620.i, label %_ZNK4llvm20BumpPtrAllocatorImplINS_15MallocAllocatorELm4096ELm4096ELm128EE14getTotalMemoryEv.exit, label %.lr.ph24.i

.lr.ph24.i:                                       ; preds = %._crit_edge.i, %.lr.ph24.i
  %.122.i = phi i64 [ %24, %.lr.ph24.i ], [ %.0.lcssa.i, %._crit_edge.i ]
  %.01521.i = phi ptr [ %25, %.lr.ph24.i ], [ %19, %._crit_edge.i ]
  %22 = getelementptr inbounds nuw i8, ptr %.01521.i, i64 8
  %23 = load i64, ptr %22, align 8
  %24 = add i64 %23, %.122.i
  %25 = getelementptr inbounds i8, ptr %.01521.i, i64 16
  %.not16.i = icmp eq ptr %25, %21
  br i1 %.not16.i, label %_ZNK4llvm20BumpPtrAllocatorImplINS_15MallocAllocatorELm4096ELm4096ELm128EE14getTotalMemoryEv.exit, label %.lr.ph24.i

_ZNK4llvm20BumpPtrAllocatorImplINS_15MallocAllocatorELm4096ELm4096ELm128EE14getTotalMemoryEv.exit: ; preds = %.lr.ph24.i, %._crit_edge.i
  %.1.lcssa.i = phi i64 [ %.0.lcssa.i, %._crit_edge.i ], [ %24, %.lr.ph24.i ]
  ret i64 %.1.lcssa.i
}